; Function Attrs: nounwind uwtable
define dso_local range(i32 1, 4) i32 @luaL_fileresult(ptr noundef %0, i32 noundef %1, ptr noundef %2) local_unnamed_addr #0 {
  %.not = icmp eq i32 %1, 0
  br i1 %.not, label %8, label %4

4:                                                ; preds = %3
  %5 = getelementptr inbounds nuw i8, ptr %0, i64 40
  %6 = load ptr, ptr %5, align 8, !tbaa !4
  %7 = getelementptr inbounds nuw i8, ptr %6, i64 8
  store ptr %7, ptr %5, align 8, !tbaa !4
  store i64 -281474976710657, ptr %6, align 8, !tbaa !14
  br label %29

8:                                                ; preds = %3
  %9 = tail call ptr @__errno_location() #12
  %10 = load i32, ptr %9, align 4, !tbaa !15
  %11 = getelementptr inbounds nuw i8, ptr %0, i64 40
  %12 = load ptr, ptr %11, align 8, !tbaa !4
  %13 = getelementptr inbounds nuw i8, ptr %12, i64 8
  store ptr %13, ptr %11, align 8, !tbaa !4
  store i64 -1, ptr %12, align 8, !tbaa !14
  %.not13 = icmp eq ptr %2, null
  %14 = tail call ptr @strerror(i32 noundef %10) #13
  br i1 %.not13, label %17, label %15

15:                                               ; preds = %8
  %16 = tail call ptr (ptr, ptr, ...) @lua_pushfstring(ptr noundef nonnull %0, ptr noundef nonnull @.str, ptr noundef nonnull %2, ptr noundef %14) #13
  br label %19

17:                                               ; preds = %8
  %18 = tail call ptr (ptr, ptr, ...) @lua_pushfstring(ptr noundef nonnull %0, ptr noundef nonnull @.str.1, ptr noundef %14) #13
  br label %19

19:                                               ; preds = %17, %15
  %20 = load ptr, ptr %11, align 8, !tbaa !4
  %21 = getelementptr inbounds nuw i8, ptr %20, i64 8
  store ptr %21, ptr %11, align 8, !tbaa !4
  %22 = sitofp i32 %10 to double
  store double %22, ptr %20, align 8, !tbaa !14
  %23 = getelementptr inbounds nuw i8, ptr %0, i64 16
  %24 = load i64, ptr %23, align 8, !tbaa !16
  %25 = inttoptr i64 %24 to ptr
  %26 = getelementptr inbounds nuw i8, ptr %25, i64 972
  %27 = load i32, ptr %26, align 4, !tbaa !17
  %28 = and i32 %27, -17
  store i32 %28, ptr %26, align 4, !tbaa !17
  br label %29

29:                                               ; preds = %19, %4
  %.0 = phi i32 [ 1, %4 ], [ 3, %19 ]
  ret i32 %.0
}